target datalayout = "e-m:e-p270:32:32-p271:32:32-p272:64:64-i64:64-i128:128-f80:128-n8:16:32:64-S128"
target triple = "x86_64-pc-linux-gnu"

%struct.WC_PKCS12 = type { ptr, ptr, ptr, i32, i8 }

; Function Attrs: nounwind uwtable
define i32 @wc_d2i_PKCS12(ptr noundef %0, i32 noundef %1, ptr noundef %2) #0 {
  %4 = alloca i32, align 4
  %5 = alloca ptr, align 8
  %6 = alloca i32, align 4
  %7 = alloca ptr, align 8
  %8 = alloca i32, align 4
  %9 = alloca i32, align 4
  %10 = alloca i32, align 4
  %11 = alloca i32, align 4
  %12 = alloca i32, align 4
  %13 = alloca i32, align 4
  store ptr %0, ptr %5, align 8, !tbaa !32
  store i32 %1, ptr %6, align 4, !tbaa !24
  store ptr %2, ptr %7, align 8, !tbaa !7
  call void @llvm.lifetime.start.p0(i64 4, ptr %8) #7
  store i32 0, ptr %8, align 4, !tbaa !24
  call void @llvm.lifetime.start.p0(i64 4, ptr %9) #7
  store i32 0, ptr %9, align 4, !tbaa !24
  call void @llvm.lifetime.start.p0(i64 4, ptr %10) #7
  call void @llvm.lifetime.start.p0(i64 4, ptr %11) #7
  store i32 0, ptr %11, align 4, !tbaa !24
  call void @llvm.lifetime.start.p0(i64 4, ptr %12) #7
  store i32 0, ptr %12, align 4, !tbaa !24
  br label %14

14:                                               ; preds = %3
  br label %15

15:                                               ; preds = %14
  br label %16

16:                                               ; preds = %15
  %17 = load ptr, ptr %5, align 8, !tbaa !32
  %18 = icmp eq ptr %17, null
  br i1 %18, label %22, label %19

19:                                               ; preds = %16
  %20 = load ptr, ptr %7, align 8, !tbaa !7
  %21 = icmp eq ptr %20, null
  br i1 %21, label %22, label %23

22:                                               ; preds = %19, %16
  store i32 -173, ptr %4, align 4
  store i32 1, ptr %13, align 4
  br label %93

23:                                               ; preds = %19
  %24 = load i32, ptr %6, align 4, !tbaa !24
  store i32 %24, ptr %9, align 4, !tbaa !24
  %25 = load ptr, ptr %5, align 8, !tbaa !32
  %26 = load i32, ptr %9, align 4, !tbaa !24
  %27 = call i32 @GetSequence(ptr noundef %25, ptr noundef %8, ptr noundef %11, i32 noundef %26)
  %28 = icmp slt i32 %27, 0
  br i1 %28, label %29, label %33

29:                                               ; preds = %23
  br label %30

30:                                               ; preds = %29
  br label %31

31:                                               ; preds = %30
  br label %32

32:                                               ; preds = %31
  store i32 -140, ptr %4, align 4
  store i32 1, ptr %13, align 4
  br label %93

33:                                               ; preds = %23
  %34 = load ptr, ptr %5, align 8, !tbaa !32
  %35 = load i32, ptr %9, align 4, !tbaa !24
  %36 = call i32 @GetMyVersion(ptr noundef %34, ptr noundef %8, ptr noundef %12, i32 noundef %35)
  store i32 %36, ptr %10, align 4, !tbaa !24
  %37 = icmp slt i32 %36, 0
  br i1 %37, label %38, label %40

38:                                               ; preds = %33
  %39 = load i32, ptr %10, align 4, !tbaa !24
  store i32 %39, ptr %4, align 4
  store i32 1, ptr %13, align 4
  br label %93

40:                                               ; preds = %33
  %41 = load ptr, ptr %7, align 8, !tbaa !7
  %42 = getelementptr inbounds nuw %struct.WC_PKCS12, ptr %41, i32 0, i32 4
  store i8 0, ptr %42, align 4, !tbaa !36
  %43 = load i32, ptr %12, align 4, !tbaa !24
  %44 = icmp ne i32 %43, 3
  br i1 %44, label %45, label %49

45:                                               ; preds = %40
  br label %46

46:                                               ; preds = %45
  br label %47

47:                                               ; preds = %46
  br label %48

48:                                               ; preds = %47
  store i32 -141, ptr %4, align 4
  store i32 1, ptr %13, align 4
  br label %93

49:                                               ; preds = %40
  %50 = load ptr, ptr %5, align 8, !tbaa !32
  %51 = load i32, ptr %9, align 4, !tbaa !24
  %52 = call i32 @GetSequence(ptr noundef %50, ptr noundef %8, ptr noundef %11, i32 noundef %51)
  store i32 %52, ptr %10, align 4, !tbaa !24
  %53 = icmp slt i32 %52, 0
  br i1 %53, label %54, label %56

54:                                               ; preds = %49
  %55 = load i32, ptr %10, align 4, !tbaa !24
  store i32 %55, ptr %4, align 4
  store i32 1, ptr %13, align 4
  br label %93

56:                                               ; preds = %49
  %57 = load ptr, ptr %7, align 8, !tbaa !7
  %58 = load ptr, ptr %5, align 8, !tbaa !32
  %59 = load i32, ptr %11, align 4, !tbaa !24
  %60 = load i32, ptr %8, align 4, !tbaa !24
  %61 = add i32 %59, %60
  %62 = call i32 @GetSafeContent(ptr noundef %57, ptr noundef %58, ptr noundef %8, i32 noundef %61)
  store i32 %62, ptr %10, align 4, !tbaa !24
  %63 = icmp slt i32 %62, 0
  br i1 %63, label %64, label %69

64:                                               ; preds = %56
  br label %65

65:                                               ; preds = %64
  br label %66

66:                                               ; preds = %65
  br label %67

67:                                               ; preds = %66
  %68 = load i32, ptr %10, align 4, !tbaa !24
  store i32 %68, ptr %4, align 4
  store i32 1, ptr %13, align 4
  br label %93

69:                                               ; preds = %56
  %70 = load i32, ptr %8, align 4, !tbaa !24
  %71 = load i32, ptr %9, align 4, !tbaa !24
  %72 = icmp ult i32 %70, %71
  br i1 %72, label %73, label %91

73:                                               ; preds = %69
  %74 = load ptr, ptr %5, align 8, !tbaa !32
  %75 = load i32, ptr %9, align 4, !tbaa !24
  %76 = call i32 @GetSequence(ptr noundef %74, ptr noundef %8, ptr noundef %11, i32 noundef %75)
  store i32 %76, ptr %10, align 4, !tbaa !24
  %77 = icmp slt i32 %76, 0
  br i1 %77, label %78, label %82

78:                                               ; preds = %73
  br label %79

79:                                               ; preds = %78
  br label %80

80:                                               ; preds = %79
  br label %81

81:                                               ; preds = %80
  br label %90

82:                                               ; preds = %73
  %83 = load ptr, ptr %7, align 8, !tbaa !7
  %84 = load ptr, ptr %5, align 8, !tbaa !32
  %85 = load i32, ptr %9, align 4, !tbaa !24
  %86 = call i32 @GetSignData(ptr noundef %83, ptr noundef %84, ptr noundef %8, i32 noundef %85)
  store i32 %86, ptr %10, align 4, !tbaa !24
  %87 = icmp slt i32 %86, 0
  br i1 %87, label %88, label %89

88:                                               ; preds = %82
  store i32 -140, ptr %4, align 4
  store i32 1, ptr %13, align 4
  br label %93

89:                                               ; preds = %82
  br label %90

90:                                               ; preds = %89, %81
  br label %91

91:                                               ; preds = %90, %69
  %92 = load i32, ptr %10, align 4, !tbaa !24
  store i32 %92, ptr %4, align 4
  store i32 1, ptr %13, align 4
  br label %93

93:                                               ; preds = %91, %88, %67, %54, %48, %38, %32, %22
  call void @llvm.lifetime.end.p0(i64 4, ptr %12) #7
  call void @llvm.lifetime.end.p0(i64 4, ptr %11) #7
  call void @llvm.lifetime.end.p0(i64 4, ptr %10) #7
  call void @llvm.lifetime.end.p0(i64 4, ptr %9) #7
  call void @llvm.lifetime.end.p0(i64 4, ptr %8) #7
  %94 = load i32, ptr %4, align 4
  ret i32 %94
}