; Function Attrs: nounwind uwtable
define i32 @wc_d2i_PKCS12(ptr noundef %0, i32 noundef %1, ptr noundef writeonly captures(address_is_null) %2) local_unnamed_addr #0 {
  %4 = alloca i32, align 4
  %5 = alloca i32, align 4
  %6 = alloca i32, align 4
  call void @llvm.lifetime.start.p0(i64 4, ptr nonnull %4) #9
  store i32 0, ptr %4, align 4, !tbaa !28
  call void @llvm.lifetime.start.p0(i64 4, ptr nonnull %5) #9
  store i32 0, ptr %5, align 4, !tbaa !28
  call void @llvm.lifetime.start.p0(i64 4, ptr nonnull %6) #9
  store i32 0, ptr %6, align 4, !tbaa !28
  %7 = icmp eq ptr %0, null
  %8 = icmp eq ptr %2, null
  %or.cond = or i1 %7, %8
  br i1 %or.cond, label %35, label %9

9:                                                ; preds = %3
  %10 = call i32 @GetSequence(ptr noundef nonnull %0, ptr noundef nonnull %4, ptr noundef nonnull %5, i32 noundef %1) #9
  %11 = icmp slt i32 %10, 0
  br i1 %11, label %35, label %12

12:                                               ; preds = %9
  %13 = call i32 @GetMyVersion(ptr noundef nonnull %0, ptr noundef nonnull %4, ptr noundef nonnull %6, i32 noundef %1) #9
  %14 = icmp slt i32 %13, 0
  br i1 %14, label %35, label %15

15:                                               ; preds = %12
  %16 = getelementptr inbounds nuw i8, ptr %2, i64 28
  store i8 0, ptr %16, align 4, !tbaa !29
  %17 = load i32, ptr %6, align 4, !tbaa !28
  %.not = icmp eq i32 %17, 3
  br i1 %.not, label %18, label %35

18:                                               ; preds = %15
  %19 = call i32 @GetSequence(ptr noundef nonnull %0, ptr noundef nonnull %4, ptr noundef nonnull %5, i32 noundef %1) #9
  %20 = icmp slt i32 %19, 0
  br i1 %20, label %35, label %21

21:                                               ; preds = %18
  %22 = load i32, ptr %5, align 4, !tbaa !28
  %23 = load i32, ptr %4, align 4, !tbaa !28
  %24 = add i32 %23, %22
  %25 = call fastcc i32 @GetSafeContent(ptr noundef %2, ptr noundef %0, ptr noundef %4, i32 noundef %24)
  %26 = icmp sgt i32 %25, -1
  %27 = load i32, ptr %4, align 4
  %28 = icmp ult i32 %27, %1
  %or.cond33 = select i1 %26, i1 %28, i1 false
  br i1 %or.cond33, label %29, label %35

29:                                               ; preds = %21
  %30 = call i32 @GetSequence(ptr noundef nonnull %0, ptr noundef nonnull %4, ptr noundef nonnull %5, i32 noundef %1) #9
  %31 = icmp slt i32 %30, 0
  br i1 %31, label %35, label %32

32:                                               ; preds = %29
  %33 = call fastcc i32 @GetSignData(ptr noundef %2, ptr noundef %0, ptr noundef %4, i32 noundef %1)
  %34 = icmp slt i32 %33, 0
  %spec.select = select i1 %34, i32 -140, i32 %33
  br label %35

35:                                               ; preds = %32, %29, %21, %18, %15, %12, %9, %3
  %.023 = phi i32 [ -173, %3 ], [ -140, %9 ], [ %13, %12 ], [ -141, %15 ], [ %19, %18 ], [ %25, %21 ], [ %30, %29 ], [ %spec.select, %32 ]
  call void @llvm.lifetime.end.p0(i64 4, ptr nonnull %6) #9
  call void @llvm.lifetime.end.p0(i64 4, ptr nonnull %5) #9
  call void @llvm.lifetime.end.p0(i64 4, ptr nonnull %4) #9
  ret i32 %.023
}